; Function Attrs: nounwind uwtable
define internal range(i32 0, 2) i32 @aead_chacha20_poly1305_old_seal(ptr noundef readonly captures(none) %0, ptr noundef %1, ptr noundef writeonly captures(none) %2, i64 noundef %3, ptr noundef readonly captures(none) %4, i64 noundef %5, ptr noundef %6, i64 noundef %7, ptr noundef %8, i64 noundef %9) #1 {
  %11 = alloca [12 x i8], align 4
  %.not = icmp eq i64 %5, 8
  br i1 %.not, label %13, label %12

12:                                               ; preds = %10
  tail call void @ERR_put_error(i32 noundef 30, i32 noundef 0, i32 noundef 121, ptr noundef nonnull @.str, i32 noundef 261) #8
  br label %18

13:                                               ; preds = %10
  call void @llvm.lifetime.start.p0(i64 12, ptr nonnull %11) #8
  store i32 0, ptr %11, align 4
  %14 = getelementptr inbounds nuw i8, ptr %11, i64 4
  %15 = load i64, ptr %4, align 1
  store i64 %15, ptr %14, align 4
  %16 = getelementptr i8, ptr %0, i64 8
  %.val = load ptr, ptr %16, align 8, !tbaa !10
  %17 = call fastcc i32 @seal_impl(ptr noundef nonnull @poly1305_update_old, ptr %.val, ptr noundef %1, ptr noundef %2, i64 noundef %3, ptr noundef nonnull %11, ptr noundef %6, i64 noundef %7, ptr noundef %8, i64 noundef %9)
  call void @llvm.lifetime.end.p0(i64 12, ptr nonnull %11) #8
  br label %18

18:                                               ; preds = %13, %12
  %.0 = phi i32 [ 0, %12 ], [ %17, %13 ]
  ret i32 %.0
}